target datalayout = "e-m:e-p270:32:32-p271:32:32-p272:64:64-i64:64-i128:128-f80:128-n8:16:32:64-S128"
target triple = "x86_64-pc-linux-gnu"

%struct._q931_packet_info = type { ptr, ptr, i8, i32, i8 }
%struct._packet_info = type { ptr, ptr, i32, i32, %struct.nstime_t, %struct.nstime_t, %struct.nstime_t, i8, ptr, ptr, ptr, ptr, %struct._address, %struct._address, %struct._address, %struct._address, %struct._address, %struct._address, i32, ptr, i8, [3 x i8], %struct.anon, i32, i32, i32, i32, ptr, i8, ptr, ptr, i16, i16, i32, i32, i16, i32, i32, ptr, ptr, ptr, i8, i8, i16, i16, i16, i32, i16, i16, ptr, ptr, ptr, ptr, ptr, i32, i32 }
%struct.nstime_t = type { i64, i32 }
%struct._address = type { i32, i32, ptr, ptr }
%struct.anon = type { i8, [3 x i8] }
%struct.e164_info_t = type { i32, i32, ptr, i32 }

@hf_q931_extension_ind = internal global i32 0, align 4
@hf_q931_number_type = internal global i32 0, align 4
@hf_q931_numbering_plan = internal global i32 0, align 4
@hf_q931_screening_ind = internal global i32 0, align 4
@hf_q931_presentation_ind = internal global i32 0, align 4
@hf_q931_extension_reason = internal global i32 0, align 4
@.str.909 = private unnamed_addr constant [7 x i8] c": '%s'\00", align 1

; Function Attrs: null_pointer_is_valid sspstrong uwtable
define internal void @dissect_q931_number_ie(ptr noundef %0, ptr noundef %1, i32 noundef %2, i32 noundef %3, ptr noundef %4, i32 noundef %5, ptr noundef byval(%struct.e164_info_t) align 8 %6, ptr noundef %7) #0 {
  %9 = alloca ptr, align 8
  %10 = alloca ptr, align 8
  %11 = alloca i32, align 4
  %12 = alloca i32, align 4
  %13 = alloca ptr, align 8
  %14 = alloca i32, align 4
  %15 = alloca ptr, align 8
  %16 = alloca i8, align 1
  %17 = alloca i32, align 4
  %18 = alloca i32, align 4
  store ptr %0, ptr %9, align 8
  store ptr %1, ptr %10, align 8
  store i32 %2, ptr %11, align 4
  store i32 %3, ptr %12, align 4
  store ptr %4, ptr %13, align 8
  store i32 %5, ptr %14, align 4
  store ptr %7, ptr %15, align 8
  call void @llvm.lifetime.start.p0(i64 1, ptr %16) #8
  call void @llvm.lifetime.start.p0(i64 4, ptr %17) #8
  %19 = load i32, ptr %12, align 4
  %20 = icmp eq i32 %19, 0
  br i1 %20, label %21, label %22

21:                                               ; preds = %8
  store i32 1, ptr %18, align 4
  br label %192

22:                                               ; preds = %8
  %23 = load ptr, ptr %10, align 8
  %24 = load i32, ptr %11, align 4
  %25 = call zeroext i8 @tvb_get_uint8(ptr noundef %23, i32 noundef %24)
  store i8 %25, ptr %16, align 1
  %26 = load i8, ptr %16, align 1
  %27 = zext i8 %26 to i32
  %28 = and i32 %27, 15
  store i32 %28, ptr %17, align 4
  %29 = load i8, ptr %16, align 1
  %30 = zext i8 %29 to i32
  %31 = and i32 %30, 112
  %32 = ashr i32 %31, 4
  %33 = getelementptr inbounds nuw %struct.e164_info_t, ptr %6, i32 0, i32 1
  store i32 %32, ptr %33, align 4
  %34 = load ptr, ptr %13, align 8
  %35 = load i32, ptr @hf_q931_numbering_plan, align 4
  %36 = load ptr, ptr %10, align 8
  %37 = load i32, ptr %11, align 4
  %38 = load i8, ptr %16, align 1
  %39 = zext i8 %38 to i32
  %40 = call ptr @proto_tree_add_uint(ptr noundef %34, i32 noundef %35, ptr noundef %36, i32 noundef %37, i32 noundef 1, i32 noundef %39)
  %41 = load ptr, ptr %13, align 8
  %42 = load i32, ptr @hf_q931_number_type, align 4
  %43 = load ptr, ptr %10, align 8
  %44 = load i32, ptr %11, align 4
  %45 = load i8, ptr %16, align 1
  %46 = zext i8 %45 to i32
  %47 = call ptr @proto_tree_add_uint(ptr noundef %41, i32 noundef %42, ptr noundef %43, i32 noundef %44, i32 noundef 1, i32 noundef %46)
  %48 = load ptr, ptr %13, align 8
  %49 = load i32, ptr @hf_q931_extension_ind, align 4
  %50 = load ptr, ptr %10, align 8
  %51 = load i32, ptr %11, align 4
  %52 = load i8, ptr %16, align 1
  %53 = zext i8 %52 to i64
  %54 = call ptr @proto_tree_add_boolean(ptr noundef %48, i32 noundef %49, ptr noundef %50, i32 noundef %51, i32 noundef 1, i64 noundef %53)
  %55 = load i32, ptr %11, align 4
  %56 = add i32 %55, 1
  store i32 %56, ptr %11, align 4
  %57 = load i32, ptr %12, align 4
  %58 = sub i32 %57, 1
  store i32 %58, ptr %12, align 4
  %59 = load i8, ptr %16, align 1
  %60 = zext i8 %59 to i32
  %61 = and i32 %60, 128
  %62 = icmp ne i32 %61, 0
  br i1 %62, label %96, label %63

63:                                               ; preds = %22
  %64 = load i32, ptr %12, align 4
  %65 = icmp eq i32 %64, 0
  br i1 %65, label %66, label %67

66:                                               ; preds = %63
  store i32 1, ptr %18, align 4
  br label %192

67:                                               ; preds = %63
  %68 = load ptr, ptr %10, align 8
  %69 = load i32, ptr %11, align 4
  %70 = call zeroext i8 @tvb_get_uint8(ptr noundef %68, i32 noundef %69)
  store i8 %70, ptr %16, align 1
  %71 = load ptr, ptr %13, align 8
  %72 = load i32, ptr @hf_q931_screening_ind, align 4
  %73 = load ptr, ptr %10, align 8
  %74 = load i32, ptr %11, align 4
  %75 = load i8, ptr %16, align 1
  %76 = zext i8 %75 to i32
  %77 = call ptr @proto_tree_add_uint(ptr noundef %71, i32 noundef %72, ptr noundef %73, i32 noundef %74, i32 noundef 1, i32 noundef %76)
  %78 = load ptr, ptr %13, align 8
  %79 = load i32, ptr @hf_q931_presentation_ind, align 4
  %80 = load ptr, ptr %10, align 8
  %81 = load i32, ptr %11, align 4
  %82 = load i8, ptr %16, align 1
  %83 = zext i8 %82 to i32
  %84 = call ptr @proto_tree_add_uint(ptr noundef %78, i32 noundef %79, ptr noundef %80, i32 noundef %81, i32 noundef 1, i32 noundef %83)
  %85 = load ptr, ptr %13, align 8
  %86 = load i32, ptr @hf_q931_extension_ind, align 4
  %87 = load ptr, ptr %10, align 8
  %88 = load i32, ptr %11, align 4
  %89 = load i8, ptr %16, align 1
  %90 = zext i8 %89 to i64
  %91 = call ptr @proto_tree_add_boolean(ptr noundef %85, i32 noundef %86, ptr noundef %87, i32 noundef %88, i32 noundef 1, i64 noundef %90)
  %92 = load i32, ptr %11, align 4
  %93 = add i32 %92, 1
  store i32 %93, ptr %11, align 4
  %94 = load i32, ptr %12, align 4
  %95 = sub i32 %94, 1
  store i32 %95, ptr %12, align 4
  br label %96

96:                                               ; preds = %67, %22
  %97 = load i8, ptr %16, align 1
  %98 = zext i8 %97 to i32
  %99 = and i32 %98, 128
  %100 = icmp ne i32 %99, 0
  br i1 %100, label %115, label %101

101:                                              ; preds = %96
  %102 = load i32, ptr %12, align 4
  %103 = icmp eq i32 %102, 0
  br i1 %103, label %104, label %105

104:                                              ; preds = %101
  store i32 1, ptr %18, align 4
  br label %192

105:                                              ; preds = %101
  %106 = load ptr, ptr %13, align 8
  %107 = load i32, ptr @hf_q931_extension_reason, align 4
  %108 = load ptr, ptr %10, align 8
  %109 = load i32, ptr %11, align 4
  %110 = call ptr @proto_tree_add_item(ptr noundef %106, i32 noundef %107, ptr noundef %108, i32 noundef %109, i32 noundef 1, i32 noundef 0)
  %111 = load i32, ptr %11, align 4
  %112 = add i32 %111, 1
  store i32 %112, ptr %11, align 4
  %113 = load i32, ptr %12, align 4
  %114 = sub i32 %113, 1
  store i32 %114, ptr %12, align 4
  br label %115

115:                                              ; preds = %105, %96
  %116 = load i32, ptr %12, align 4
  %117 = icmp eq i32 %116, 0
  br i1 %117, label %118, label %119

118:                                              ; preds = %115
  store i32 1, ptr %18, align 4
  br label %192

119:                                              ; preds = %115
  %120 = load ptr, ptr %13, align 8
  %121 = load i32, ptr %14, align 4
  %122 = load ptr, ptr %10, align 8
  %123 = load i32, ptr %11, align 4
  %124 = load i32, ptr %12, align 4
  %125 = call ptr @proto_tree_add_item(ptr noundef %120, i32 noundef %121, ptr noundef %122, i32 noundef %123, i32 noundef %124, i32 noundef 0)
  %126 = load ptr, ptr %13, align 8
  %127 = call ptr @proto_tree_get_parent(ptr noundef %126)
  %128 = load ptr, ptr %9, align 8
  %129 = getelementptr inbounds nuw %struct._packet_info, ptr %128, i32 0, i32 51
  %130 = load ptr, ptr %129, align 8
  %131 = load ptr, ptr %10, align 8
  %132 = load i32, ptr %11, align 4
  %133 = load i32, ptr %12, align 4
  %134 = call ptr @tvb_format_text(ptr noundef %130, ptr noundef %131, i32 noundef %132, i32 noundef %133)
  call void (ptr, ptr, ...) @proto_item_append_text(ptr noundef %127, ptr noundef @.str.909, ptr noundef %134)
  %135 = load i32, ptr %17, align 4
  %136 = icmp eq i32 %135, 1
  br i1 %136, label %137, label %157

137:                                              ; preds = %119
  %138 = getelementptr inbounds nuw %struct.e164_info_t, ptr %6, i32 0, i32 0
  %139 = load i32, ptr %138, align 8
  %140 = icmp ne i32 %139, 0
  br i1 %140, label %141, label %156

141:                                              ; preds = %137
  %142 = load ptr, ptr %9, align 8
  %143 = getelementptr inbounds nuw %struct._packet_info, ptr %142, i32 0, i32 51
  %144 = load ptr, ptr %143, align 8
  %145 = load ptr, ptr %10, align 8
  %146 = load i32, ptr %11, align 4
  %147 = load i32, ptr %12, align 4
  %148 = call ptr @tvb_get_string_enc(ptr noundef %144, ptr noundef %145, i32 noundef %146, i32 noundef %147, i32 noundef 0)
  %149 = getelementptr inbounds nuw %struct.e164_info_t, ptr %6, i32 0, i32 2
  store ptr %148, ptr %149, align 8
  %150 = load i32, ptr %12, align 4
  %151 = getelementptr inbounds nuw %struct.e164_info_t, ptr %6, i32 0, i32 3
  store i32 %150, ptr %151, align 8
  %152 = load ptr, ptr %10, align 8
  %153 = load ptr, ptr %13, align 8
  %154 = load i32, ptr %11, align 4
  %155 = load i32, ptr %12, align 4
  call void @dissect_e164_number(ptr noundef %152, ptr noundef %153, i32 noundef %154, i32 noundef %155, ptr noundef byval(%struct.e164_info_t) align 8 %6)
  br label %156

156:                                              ; preds = %141, %137
  br label %157

157:                                              ; preds = %156, %119
  %158 = getelementptr inbounds nuw %struct.e164_info_t, ptr %6, i32 0, i32 0
  %159 = load i32, ptr %158, align 8
  %160 = icmp eq i32 %159, 1
  br i1 %160, label %161, label %174

161:                                              ; preds = %157
  %162 = load ptr, ptr %15, align 8
  %163 = icmp ne ptr %162, null
  br i1 %163, label %164, label %174

164:                                              ; preds = %161
  %165 = load ptr, ptr %9, align 8
  %166 = getelementptr inbounds nuw %struct._packet_info, ptr %165, i32 0, i32 51
  %167 = load ptr, ptr %166, align 8
  %168 = load ptr, ptr %10, align 8
  %169 = load i32, ptr %11, align 4
  %170 = load i32, ptr %12, align 4
  %171 = call ptr @tvb_get_string_enc(ptr noundef %167, ptr noundef %168, i32 noundef %169, i32 noundef %170, i32 noundef 0)
  %172 = load ptr, ptr %15, align 8
  %173 = getelementptr inbounds nuw %struct._q931_packet_info, ptr %172, i32 0, i32 0
  store ptr %171, ptr %173, align 8
  br label %174

174:                                              ; preds = %164, %161, %157
  %175 = getelementptr inbounds nuw %struct.e164_info_t, ptr %6, i32 0, i32 0
  %176 = load i32, ptr %175, align 8
  %177 = icmp eq i32 %176, 2
  br i1 %177, label %178, label %191

178:                                              ; preds = %174
  %179 = load ptr, ptr %15, align 8
  %180 = icmp ne ptr %179, null
  br i1 %180, label %181, label %191

181:                                              ; preds = %178
  %182 = load ptr, ptr %9, align 8
  %183 = getelementptr inbounds nuw %struct._packet_info, ptr %182, i32 0, i32 51
  %184 = load ptr, ptr %183, align 8
  %185 = load ptr, ptr %10, align 8
  %186 = load i32, ptr %11, align 4
  %187 = load i32, ptr %12, align 4
  %188 = call ptr @tvb_get_string_enc(ptr noundef %184, ptr noundef %185, i32 noundef %186, i32 noundef %187, i32 noundef 0)
  %189 = load ptr, ptr %15, align 8
  %190 = getelementptr inbounds nuw %struct._q931_packet_info, ptr %189, i32 0, i32 1
  store ptr %188, ptr %190, align 8
  br label %191

191:                                              ; preds = %181, %178, %174
  store i32 0, ptr %18, align 4
  br label %192

192:                                              ; preds = %191, %118, %104, %66, %21
  call void @llvm.lifetime.end.p0(i64 4, ptr %17) #8
  call void @llvm.lifetime.end.p0(i64 1, ptr %16) #8
  %193 = load i32, ptr %18, align 4
  switch i32 %193, label %195 [
    i32 0, label %194
    i32 1, label %194
  ]

194:                                              ; preds = %192, %192
  ret void

195:                                              ; preds = %192
  unreachable
}