; Function Attrs: null_pointer_is_valid sspstrong uwtable
define internal fastcc void @dissect_q931_number_ie(ptr noundef readonly captures(none) %0, ptr noundef %1, i32 noundef %2, i32 noundef range(i32 0, 256) %3, ptr noundef %4, i32 noundef %5, ptr noundef byval(%struct.e164_info_t) align 8 captures(none) %6, ptr noundef writeonly captures(address_is_null) %7) unnamed_addr #0 {
  %9 = icmp eq i32 %3, 0
  br i1 %9, label %74, label %10

10:                                               ; preds = %8
  %11 = tail call zeroext i8 @tvb_get_uint8(ptr noundef %1, i32 noundef %2)
  %12 = zext i8 %11 to i32
  %13 = and i32 %12, 15
  %14 = lshr i32 %12, 4
  %15 = and i32 %14, 7
  %16 = getelementptr inbounds nuw i8, ptr %6, i64 4
  store i32 %15, ptr %16, align 4
  %17 = load i32, ptr @hf_q931_numbering_plan, align 4
  %18 = tail call ptr @proto_tree_add_uint(ptr noundef %4, i32 noundef %17, ptr noundef %1, i32 noundef %2, i32 noundef 1, i32 noundef %12)
  %19 = load i32, ptr @hf_q931_number_type, align 4
  %20 = tail call ptr @proto_tree_add_uint(ptr noundef %4, i32 noundef %19, ptr noundef %1, i32 noundef %2, i32 noundef 1, i32 noundef %12)
  %21 = load i32, ptr @hf_q931_extension_ind, align 4
  %22 = zext i8 %11 to i64
  %23 = tail call ptr @proto_tree_add_boolean(ptr noundef %4, i32 noundef %21, ptr noundef %1, i32 noundef %2, i32 noundef 1, i64 noundef %22)
  %24 = add i32 %2, 1
  %25 = add nsw i32 %3, -1
  %.not = icmp sgt i8 %11, -1
  br i1 %.not, label %26, label %.thread

26:                                               ; preds = %10
  %27 = icmp eq i32 %25, 0
  br i1 %27, label %74, label %28

28:                                               ; preds = %26
  %29 = tail call zeroext i8 @tvb_get_uint8(ptr noundef %1, i32 noundef %24)
  %30 = load i32, ptr @hf_q931_screening_ind, align 4
  %31 = zext i8 %29 to i32
  %32 = tail call ptr @proto_tree_add_uint(ptr noundef %4, i32 noundef %30, ptr noundef %1, i32 noundef %24, i32 noundef 1, i32 noundef %31)
  %33 = load i32, ptr @hf_q931_presentation_ind, align 4
  %34 = tail call ptr @proto_tree_add_uint(ptr noundef %4, i32 noundef %33, ptr noundef %1, i32 noundef %24, i32 noundef 1, i32 noundef %31)
  %35 = load i32, ptr @hf_q931_extension_ind, align 4
  %36 = zext i8 %29 to i64
  %37 = tail call ptr @proto_tree_add_boolean(ptr noundef %4, i32 noundef %35, ptr noundef %1, i32 noundef %24, i32 noundef 1, i64 noundef %36)
  %38 = add i32 %2, 2
  %39 = add nsw i32 %3, -2
  %40 = icmp sgt i8 %29, -1
  br i1 %40, label %41, label %.thread

41:                                               ; preds = %28
  %42 = icmp eq i32 %39, 0
  br i1 %42, label %74, label %43

43:                                               ; preds = %41
  %44 = load i32, ptr @hf_q931_extension_reason, align 4
  %45 = tail call ptr @proto_tree_add_item(ptr noundef %4, i32 noundef %44, ptr noundef %1, i32 noundef %38, i32 noundef 1, i32 noundef 0)
  %46 = add i32 %2, 3
  %47 = add nsw i32 %3, -3
  br label %.thread

.thread:                                          ; preds = %10, %43, %28
  %.184 = phi i32 [ %39, %28 ], [ %47, %43 ], [ %25, %10 ]
  %.1 = phi i32 [ %38, %28 ], [ %46, %43 ], [ %24, %10 ]
  %48 = icmp eq i32 %.184, 0
  br i1 %48, label %74, label %49

49:                                               ; preds = %.thread
  %50 = tail call ptr @proto_tree_add_item(ptr noundef %4, i32 noundef %5, ptr noundef %1, i32 noundef %.1, i32 noundef %.184, i32 noundef 0)
  %51 = tail call ptr @proto_tree_get_parent(ptr noundef %4)
  %52 = getelementptr inbounds nuw i8, ptr %0, i64 408
  %53 = load ptr, ptr %52, align 8
  %54 = tail call ptr @tvb_format_text(ptr noundef %53, ptr noundef %1, i32 noundef %.1, i32 noundef %.184)
  tail call void (ptr, ptr, ...) @proto_item_append_text(ptr noundef %51, ptr noundef nonnull @.str.909, ptr noundef %54)
  %55 = icmp eq i32 %13, 1
  %56 = load i32, ptr %6, align 8
  %57 = icmp ne i32 %56, 0
  %or.cond6 = select i1 %55, i1 %57, i1 false
  br i1 %or.cond6, label %58, label %63

58:                                               ; preds = %49
  %59 = load ptr, ptr %52, align 8
  %60 = tail call ptr @tvb_get_string_enc(ptr noundef %59, ptr noundef %1, i32 noundef %.1, i32 noundef %.184, i32 noundef 0)
  %61 = getelementptr inbounds nuw i8, ptr %6, i64 8
  store ptr %60, ptr %61, align 8
  %62 = getelementptr inbounds nuw i8, ptr %6, i64 16
  store i32 %.184, ptr %62, align 8
  tail call void @dissect_e164_number(ptr noundef %1, ptr noundef %4, i32 noundef %.1, i32 noundef %.184, ptr noundef byval(%struct.e164_info_t) align 8 %6)
  br label %63

63:                                               ; preds = %58, %49
  %64 = icmp eq i32 %56, 1
  %65 = icmp ne ptr %7, null
  %or.cond = and i1 %65, %64
  br i1 %or.cond, label %.thread93, label %68

.thread93:                                        ; preds = %63
  %66 = load ptr, ptr %52, align 8
  %67 = tail call ptr @tvb_get_string_enc(ptr noundef %66, ptr noundef %1, i32 noundef %.1, i32 noundef %.184, i32 noundef 0)
  store ptr %67, ptr %7, align 8
  br label %74

68:                                               ; preds = %63
  %69 = icmp eq i32 %56, 2
  %or.cond3 = and i1 %65, %69
  br i1 %or.cond3, label %70, label %74

70:                                               ; preds = %68
  %71 = load ptr, ptr %52, align 8
  %72 = tail call ptr @tvb_get_string_enc(ptr noundef %71, ptr noundef %1, i32 noundef %.1, i32 noundef %.184, i32 noundef 0)
  %73 = getelementptr inbounds nuw i8, ptr %7, i64 8
  store ptr %72, ptr %73, align 8
  br label %74

74:                                               ; preds = %.thread93, %68, %70, %.thread, %41, %26, %8
  ret void
}